; Function Attrs: mustprogress nofree norecurse nosync nounwind willreturn memory(readwrite, inaccessiblemem: none) uwtable
define void @_ZN3net20QuicUnackedPacketMap17RestoreToInFlightEm(ptr noundef nonnull align 8 captures(none) dereferenceable(120) %0, i64 noundef %1) local_unnamed_addr #10 align 2 personality ptr @__gxx_personality_v0 {
  %3 = getelementptr inbounds nuw i8, ptr %0, i64 96
  %4 = load i64, ptr %3, align 8, !tbaa !3
  %5 = sub i64 %1, %4
  %6 = getelementptr inbounds nuw i8, ptr %0, i64 32
  %7 = load ptr, ptr %6, align 8, !tbaa !16, !noalias !137
  %8 = getelementptr inbounds nuw i8, ptr %0, i64 40
  %9 = load ptr, ptr %8, align 8, !tbaa !34, !noalias !137
  %10 = getelementptr inbounds nuw i8, ptr %0, i64 56
  %11 = load ptr, ptr %10, align 8, !tbaa !23, !noalias !137
  %12 = ptrtoint ptr %7 to i64
  %13 = ptrtoint ptr %9 to i64
  %14 = sub i64 %12, %13
  %15 = sdiv exact i64 %14, 80
  %16 = add nsw i64 %15, %5
  %17 = icmp sgt i64 %16, -1
  br i1 %17, label %18, label %24

18:                                               ; preds = %2
  %19 = icmp samesign ult i64 %16, 6
  br i1 %19, label %20, label %22

20:                                               ; preds = %18
  %21 = getelementptr inbounds %"struct.net::TransmissionInfo", ptr %7, i64 %5
  br label %_ZNSt5dequeIN3net16TransmissionInfoESaIS1_EEixEm.exit

22:                                               ; preds = %18
  %23 = udiv i64 %16, 6
  br label %28

24:                                               ; preds = %2
  %25 = xor i64 %16, -1
  %26 = udiv i64 %25, 6
  %27 = xor i64 %26, -1
  br label %28

28:                                               ; preds = %24, %22
  %29 = phi i64 [ %23, %22 ], [ %27, %24 ]
  %30 = getelementptr inbounds ptr, ptr %11, i64 %29
  %31 = load ptr, ptr %30, align 8, !tbaa !25, !noalias !137
  %.idx.i.i.i.i = mul i64 %29, -480
  %32 = getelementptr i8, ptr %31, i64 %.idx.i.i.i.i
  %33 = getelementptr %"struct.net::TransmissionInfo", ptr %32, i64 %16
  br label %_ZNSt5dequeIN3net16TransmissionInfoESaIS1_EEixEm.exit

_ZNSt5dequeIN3net16TransmissionInfoESaIS1_EEixEm.exit: ; preds = %20, %28
  %storemerge.i.i.i.i = phi ptr [ %33, %28 ], [ %21, %20 ]
  %34 = getelementptr inbounds nuw i8, ptr %storemerge.i.i.i.i, i64 26
  %35 = load i16, ptr %34, align 2, !tbaa !133
  %36 = zext i16 %35 to i64
  %37 = getelementptr inbounds nuw i8, ptr %0, i64 104
  %38 = load i64, ptr %37, align 8, !tbaa !76
  %39 = add i64 %38, %36
  store i64 %39, ptr %37, align 8, !tbaa !76
  %40 = getelementptr inbounds nuw i8, ptr %storemerge.i.i.i.i, i64 41
  store i8 1, ptr %40, align 1, !tbaa !77
  ret void
}